; ModuleID = 'probe1.49aa193e-cgu.0'
source_filename = "probe1.49aa193e-cgu.0"
target datalayout = "e-m:e-p270:32:32-p271:32:32-p272:64:64-i64:64-f80:128-n8:16:32:64-S128"
target triple = "x86_64-unknown-linux-gnu"

%"core::fmt::Formatter" = type { { i64, i64 }, { i64, i64 }, { {}*, [3 x i64]* }, i32, i32, i8, [7 x i8] }
%"core::fmt::Opaque" = type {}
%"core::fmt::Arguments" = type { { [0 x { [0 x i8]*, i64 }]*, i64 }, { i64*, i64 }, { [0 x { i8*, i64* }]*, i64 } }
%"core::panic::location::Location" = type { { [0 x i8]*, i64 }, i32, i32 }

@alloc7 = private unnamed_addr constant <{ [12 x i8] }> <{ [12 x i8] c"invalid args" }>, align 1
@alloc8 = private unnamed_addr constant <{ i8*, [8 x i8] }> <{ i8* getelementptr inbounds (<{ [12 x i8] }>, <{ [12 x i8] }>* @alloc7, i32 0, i32 0, i32 0), [8 x i8] c"\0C\00\00\00\00\00\00\00" }>, align 8
@alloc10 = private unnamed_addr constant <{ [0 x i8] }> zeroinitializer, align 8
@alloc11 = private unnamed_addr constant <{ [75 x i8] }> <{ [75 x i8] c"/rustc/7737e0b5c4103216d6fd8cf941b7ab9bdbaace7c/library/core/src/fmt/mod.rs" }>, align 1
@alloc12 = private unnamed_addr constant <{ i8*, [16 x i8] }> <{ i8* getelementptr inbounds (<{ [75 x i8] }>, <{ [75 x i8] }>* @alloc11, i32 0, i32 0, i32 0), [16 x i8] c"K\00\00\00\00\00\00\00\81\01\00\00\0D\00\00\00" }>, align 8

; core::fmt::ArgumentV1::new
; Function Attrs: inlinehint nonlazybind uwtable
define { i8*, i64* } @_ZN4core3fmt10ArgumentV13new17h8a003a007113b3e6E(i64* noundef align 8 dereferenceable(8) %x, i1 (i64*, %"core::fmt::Formatter"*)* nonnull %f) unnamed_addr #0 {
start:
  %0 = alloca %"core::fmt::Opaque"*, align 8
  %1 = alloca i1 (%"core::fmt::Opaque"*, %"core::fmt::Formatter"*)*, align 8
  %2 = alloca { i8*, i64* }, align 8
  %3 = bitcast i1 (i64*, %"core::fmt::Formatter"*)* %f to i1 (%"core::fmt::Opaque"*, %"core::fmt::Formatter"*)*
  store i1 (%"core::fmt::Opaque"*, %"core::fmt::Formatter"*)* %3, i1 (%"core::fmt::Opaque"*, %"core::fmt::Formatter"*)** %1, align 8
  %_3 = load i1 (%"core::fmt::Opaque"*, %"core::fmt::Formatter"*)*, i1 (%"core::fmt::Opaque"*, %"core::fmt::Formatter"*)** %1, align 8, !nonnull !2
  br label %bb1

bb1:                                              ; preds = %start
  %4 = bitcast i64* %x to %"core::fmt::Opaque"*
  store %"core::fmt::Opaque"* %4, %"core::fmt::Opaque"** %0, align 8
  %_5 = load %"core::fmt::Opaque"*, %"core::fmt::Opaque"** %0, align 8, !nonnull !2
  br label %bb2

bb2:                                              ; preds = %bb1
  %5 = bitcast { i8*, i64* }* %2 to %"core::fmt::Opaque"**
  store %"core::fmt::Opaque"* %_5, %"core::fmt::Opaque"** %5, align 8
  %6 = getelementptr inbounds { i8*, i64* }, { i8*, i64* }* %2, i32 0, i32 1
  %7 = bitcast i64** %6 to i1 (%"core::fmt::Opaque"*, %"core::fmt::Formatter"*)**
  store i1 (%"core::fmt::Opaque"*, %"core::fmt::Formatter"*)* %_3, i1 (%"core::fmt::Opaque"*, %"core::fmt::Formatter"*)** %7, align 8
  %8 = getelementptr inbounds { i8*, i64* }, { i8*, i64* }* %2, i32 0, i32 0
  %9 = load i8*, i8** %8, align 8, !nonnull !2
  %10 = getelementptr inbounds { i8*, i64* }, { i8*, i64* }* %2, i32 0, i32 1
  %11 = load i64*, i64** %10, align 8, !nonnull !2
  %12 = insertvalue { i8*, i64* } undef, i8* %9, 0
  %13 = insertvalue { i8*, i64* } %12, i64* %11, 1
  ret { i8*, i64* } %13
}

; core::fmt::Arguments::new_v1
; Function Attrs: inlinehint nonlazybind uwtable
define hidden void @_ZN4core3fmt9Arguments6new_v117h99eeafbdfca9bd9eE(%"core::fmt::Arguments"* noalias nocapture noundef sret(%"core::fmt::Arguments") dereferenceable(48) %0, [0 x { [0 x i8]*, i64 }]* noundef nonnull align 8 %pieces.0, i64 %pieces.1, [0 x { i8*, i64* }]* noundef nonnull align 8 %args.0, i64 %args.1) unnamed_addr #0 {
start:
  %_23 = alloca { i64*, i64 }, align 8
  %_15 = alloca %"core::fmt::Arguments", align 8
  %_3 = alloca i8, align 1
  %_4 = icmp ult i64 %pieces.1, %args.1
  br i1 %_4, label %bb1, label %bb2

bb2:                                              ; preds = %start
  %_12 = add i64 %args.1, 1
  %_9 = icmp ugt i64 %pieces.1, %_12
  %1 = zext i1 %_9 to i8
  store i8 %1, i8* %_3, align 1
  br label %bb3

bb1:                                              ; preds = %start
  store i8 1, i8* %_3, align 1
  br label %bb3

bb3:                                              ; preds = %bb2, %bb1
  %2 = load i8, i8* %_3, align 1, !range !3
  %3 = trunc i8 %2 to i1
  br i1 %3, label %bb4, label %bb6

bb6:                                              ; preds = %bb3
  %4 = bitcast { i64*, i64 }* %_23 to {}**
  store {}* null, {}** %4, align 8
  %5 = bitcast %"core::fmt::Arguments"* %0 to { [0 x { [0 x i8]*, i64 }]*, i64 }*
  %6 = getelementptr inbounds { [0 x { [0 x i8]*, i64 }]*, i64 }, { [0 x { [0 x i8]*, i64 }]*, i64 }* %5, i32 0, i32 0
  store [0 x { [0 x i8]*, i64 }]* %pieces.0, [0 x { [0 x i8]*, i64 }]** %6, align 8
  %7 = getelementptr inbounds { [0 x { [0 x i8]*, i64 }]*, i64 }, { [0 x { [0 x i8]*, i64 }]*, i64 }* %5, i32 0, i32 1
  store i64 %pieces.1, i64* %7, align 8
  %8 = getelementptr inbounds %"core::fmt::Arguments", %"core::fmt::Arguments"* %0, i32 0, i32 1
  %9 = getelementptr inbounds { i64*, i64 }, { i64*, i64 }* %_23, i32 0, i32 0
  %10 = load i64*, i64** %9, align 8
  %11 = getelementptr inbounds { i64*, i64 }, { i64*, i64 }* %_23, i32 0, i32 1
  %12 = load i64, i64* %11, align 8
  %13 = getelementptr inbounds { i64*, i64 }, { i64*, i64 }* %8, i32 0, i32 0
  store i64* %10, i64** %13, align 8
  %14 = getelementptr inbounds { i64*, i64 }, { i64*, i64 }* %8, i32 0, i32 1
  store i64 %12, i64* %14, align 8
  %15 = getelementptr inbounds %"core::fmt::Arguments", %"core::fmt::Arguments"* %0, i32 0, i32 2
  %16 = getelementptr inbounds { [0 x { i8*, i64* }]*, i64 }, { [0 x { i8*, i64* }]*, i64 }* %15, i32 0, i32 0
  store [0 x { i8*, i64* }]* %args.0, [0 x { i8*, i64* }]** %16, align 8
  %17 = getelementptr inbounds { [0 x { i8*, i64* }]*, i64 }, { [0 x { i8*, i64* }]*, i64 }* %15, i32 0, i32 1
  store i64 %args.1, i64* %17, align 8
  ret void

bb4:                                              ; preds = %bb3
; call core::fmt::Arguments::new_v1
  call void @_ZN4core3fmt9Arguments6new_v117h99eeafbdfca9bd9eE(%"core::fmt::Arguments"* noalias nocapture noundef sret(%"core::fmt::Arguments") dereferenceable(48) %_15, [0 x { [0 x i8]*, i64 }]* noundef nonnull align 8 bitcast (<{ i8*, [8 x i8] }>* @alloc8 to [0 x { [0 x i8]*, i64 }]*), i64 1, [0 x { i8*, i64* }]* noundef nonnull align 8 bitcast (<{ [0 x i8] }>* @alloc10 to [0 x { i8*, i64* }]*), i64 0)
  br label %bb5

bb5:                                              ; preds = %bb4
; call core::panicking::panic_fmt
  call void @_ZN4core9panicking9panic_fmt17he1bbc7336d49a357E(%"core::fmt::Arguments"* noalias nocapture noundef dereferenceable(48) %_15, %"core::panic::location::Location"* noundef align 8 dereferenceable(24) bitcast (<{ i8*, [16 x i8] }>* @alloc12 to %"core::panic::location::Location"*)) #3
  unreachable
}

; core::fmt::ArgumentV1::new_lower_exp
; Function Attrs: inlinehint nonlazybind uwtable
define { i8*, i64* } @_ZN4core3fmt10ArgumentV113new_lower_exp17h042822b93991e3adE(i64* noundef align 8 dereferenceable(8) %x) unnamed_addr #0 {
start:
; call core::fmt::ArgumentV1::new
  %0 = call { i8*, i64* } @_ZN4core3fmt10ArgumentV13new17h8a003a007113b3e6E(i64* noundef align 8 dereferenceable(8) %x, i1 (i64*, %"core::fmt::Formatter"*)* nonnull @"_ZN4core3fmt3num3imp55_$LT$impl$u20$core..fmt..LowerExp$u20$for$u20$isize$GT$3fmt17hbab51f9862c59e16E")
  %1 = extractvalue { i8*, i64* } %0, 0
  %2 = extractvalue { i8*, i64* } %0, 1
  br label %bb1

bb1:                                              ; preds = %start
  %3 = insertvalue { i8*, i64* } undef, i8* %1, 0
  %4 = insertvalue { i8*, i64* } %3, i64* %2, 1
  ret { i8*, i64* } %4
}

; core::panicking::panic_fmt
; Function Attrs: cold noinline noreturn nonlazybind uwtable
declare void @_ZN4core9panicking9panic_fmt17he1bbc7336d49a357E(%"core::fmt::Arguments"* noalias nocapture noundef dereferenceable(48), %"core::panic::location::Location"* noundef align 8 dereferenceable(24)) unnamed_addr #1

; core::fmt::num::imp::<impl core::fmt::LowerExp for isize>::fmt
; Function Attrs: nonlazybind uwtable
declare noundef zeroext i1 @"_ZN4core3fmt3num3imp55_$LT$impl$u20$core..fmt..LowerExp$u20$for$u20$isize$GT$3fmt17hbab51f9862c59e16E"(i64* noundef align 8 dereferenceable(8), %"core::fmt::Formatter"* noundef align 8 dereferenceable(64)) unnamed_addr #2

attributes #0 = { inlinehint nonlazybind uwtable "probe-stack"="__rust_probestack" "target-cpu"="x86-64" }
attributes #1 = { cold noinline noreturn nonlazybind uwtable "probe-stack"="__rust_probestack" "target-cpu"="x86-64" }
attributes #2 = { nonlazybind uwtable "probe-stack"="__rust_probestack" "target-cpu"="x86-64" }
attributes #3 = { noreturn }

!llvm.module.flags = !{!0, !1}

!0 = !{i32 7, !"PIC Level", i32 2}
!1 = !{i32 2, !"RtLibUseGOT", i32 1}
!2 = !{}
!3 = !{i8 0, i8 2}
