; ModuleID = 'probe1.49aa193e-cgu.6'
source_filename = "probe1.49aa193e-cgu.6"
target datalayout = "e-m:e-p270:32:32-p271:32:32-p272:64:64-i64:64-f80:128-n8:16:32:64-S128"
target triple = "x86_64-unknown-linux-gnu"

%"core::fmt::Arguments" = type { { [0 x { [0 x i8]*, i64 }]*, i64 }, { i64*, i64 }, { [0 x { i8*, i64* }]*, i64 } }
%"alloc::string::String" = type { %"alloc::vec::Vec<u8>" }
%"alloc::vec::Vec<u8>" = type { { i8*, i64 }, i64 }

@alloc2 = private unnamed_addr constant <{ [0 x i8] }> zeroinitializer, align 1
@alloc3 = private unnamed_addr constant <{ i8*, [8 x i8] }> <{ i8* getelementptr inbounds (<{ [0 x i8] }>, <{ [0 x i8] }>* @alloc2, i32 0, i32 0, i32 0), [8 x i8] zeroinitializer }>, align 8
@alloc5 = private unnamed_addr constant <{ [8 x i8] }> zeroinitializer, align 8

; probe1::probe
; Function Attrs: nonlazybind uwtable
define void @_ZN6probe15probe17h88659a1cd765b415E() unnamed_addr #0 {
start:
  %_10 = alloca [1 x { i8*, i64* }], align 8
  %_3 = alloca %"core::fmt::Arguments", align 8
  %res = alloca %"alloc::string::String", align 8
  %_1 = alloca %"alloc::string::String", align 8
; call core::fmt::ArgumentV1::new_lower_exp
  %0 = call { i8*, i64* } @_ZN4core3fmt10ArgumentV113new_lower_exp17h042822b93991e3adE(i64* noundef align 8 dereferenceable(8) bitcast (<{ [8 x i8] }>* @alloc5 to i64*))
  %_11.0 = extractvalue { i8*, i64* } %0, 0
  %_11.1 = extractvalue { i8*, i64* } %0, 1
  br label %bb1

bb1:                                              ; preds = %start
  %1 = bitcast [1 x { i8*, i64* }]* %_10 to { i8*, i64* }*
  %2 = getelementptr inbounds { i8*, i64* }, { i8*, i64* }* %1, i32 0, i32 0
  store i8* %_11.0, i8** %2, align 8
  %3 = getelementptr inbounds { i8*, i64* }, { i8*, i64* }* %1, i32 0, i32 1
  store i64* %_11.1, i64** %3, align 8
  %_7.0 = bitcast [1 x { i8*, i64* }]* %_10 to [0 x { i8*, i64* }]*
; call core::fmt::Arguments::new_v1
  call void @_ZN4core3fmt9Arguments6new_v117h99eeafbdfca9bd9eE(%"core::fmt::Arguments"* noalias nocapture noundef sret(%"core::fmt::Arguments") dereferenceable(48) %_3, [0 x { [0 x i8]*, i64 }]* noundef nonnull align 8 bitcast (<{ i8*, [8 x i8] }>* @alloc3 to [0 x { [0 x i8]*, i64 }]*), i64 1, [0 x { i8*, i64* }]* noundef nonnull align 8 %_7.0, i64 1)
  br label %bb2

bb2:                                              ; preds = %bb1
; call alloc::fmt::format
  call void @_ZN5alloc3fmt6format17h4141264adb528c54E(%"alloc::string::String"* noalias nocapture noundef sret(%"alloc::string::String") dereferenceable(24) %res, %"core::fmt::Arguments"* noalias nocapture noundef dereferenceable(48) %_3)
  br label %bb3

bb3:                                              ; preds = %bb2
  %4 = bitcast %"alloc::string::String"* %_1 to i8*
  %5 = bitcast %"alloc::string::String"* %res to i8*
  call void @llvm.memcpy.p0i8.p0i8.i64(i8* align 8 %4, i8* align 8 %5, i64 24, i1 false)
; call core::ptr::drop_in_place<alloc::string::String>
  call void @"_ZN4core3ptr42drop_in_place$LT$alloc..string..String$GT$17he7c0ec0b771eba18E"(%"alloc::string::String"* %_1)
  br label %bb4

bb4:                                              ; preds = %bb3
  ret void
}

; core::ptr::slice_from_raw_parts_mut
; Function Attrs: inlinehint nonlazybind uwtable
define { [0 x i8]*, i64 } @_ZN4core3ptr24slice_from_raw_parts_mut17h9fd93bd0298a3d49E(i8* %data, i64 %len) unnamed_addr #1 {
start:
  %0 = bitcast i8* %data to {}*
  br label %bb1

bb1:                                              ; preds = %start
; call core::ptr::metadata::from_raw_parts_mut
  %1 = call { [0 x i8]*, i64 } @_ZN4core3ptr8metadata18from_raw_parts_mut17hd909bd99f18a5853E({}* %0, i64 %len)
  %2 = extractvalue { [0 x i8]*, i64 } %1, 0
  %3 = extractvalue { [0 x i8]*, i64 } %1, 1
  br label %bb2

bb2:                                              ; preds = %bb1
  %4 = insertvalue { [0 x i8]*, i64 } undef, [0 x i8]* %2, 0
  %5 = insertvalue { [0 x i8]*, i64 } %4, i64 %3, 1
  ret { [0 x i8]*, i64 } %5
}

; core::fmt::ArgumentV1::new_lower_exp
; Function Attrs: inlinehint nonlazybind uwtable
declare { i8*, i64* } @_ZN4core3fmt10ArgumentV113new_lower_exp17h042822b93991e3adE(i64* noundef align 8 dereferenceable(8)) unnamed_addr #1

; core::fmt::Arguments::new_v1
; Function Attrs: inlinehint nonlazybind uwtable
declare hidden void @_ZN4core3fmt9Arguments6new_v117h99eeafbdfca9bd9eE(%"core::fmt::Arguments"* noalias nocapture noundef sret(%"core::fmt::Arguments") dereferenceable(48), [0 x { [0 x i8]*, i64 }]* noundef nonnull align 8, i64, [0 x { i8*, i64* }]* noundef nonnull align 8, i64) unnamed_addr #1

; alloc::fmt::format
; Function Attrs: nonlazybind uwtable
declare void @_ZN5alloc3fmt6format17h4141264adb528c54E(%"alloc::string::String"* noalias nocapture noundef sret(%"alloc::string::String") dereferenceable(24), %"core::fmt::Arguments"* noalias nocapture noundef dereferenceable(48)) unnamed_addr #0

; Function Attrs: argmemonly nofree nounwind willreturn
declare void @llvm.memcpy.p0i8.p0i8.i64(i8* noalias nocapture writeonly, i8* noalias nocapture readonly, i64, i1 immarg) #2

; core::ptr::drop_in_place<alloc::string::String>
; Function Attrs: nonlazybind uwtable
declare void @"_ZN4core3ptr42drop_in_place$LT$alloc..string..String$GT$17he7c0ec0b771eba18E"(%"alloc::string::String"*) unnamed_addr #0

; core::ptr::metadata::from_raw_parts_mut
; Function Attrs: inlinehint nonlazybind uwtable
declare { [0 x i8]*, i64 } @_ZN4core3ptr8metadata18from_raw_parts_mut17hd909bd99f18a5853E({}*, i64) unnamed_addr #1

attributes #0 = { nonlazybind uwtable "probe-stack"="__rust_probestack" "target-cpu"="x86-64" }
attributes #1 = { inlinehint nonlazybind uwtable "probe-stack"="__rust_probestack" "target-cpu"="x86-64" }
attributes #2 = { argmemonly nofree nounwind willreturn }

!llvm.module.flags = !{!0, !1}

!0 = !{i32 7, !"PIC Level", i32 2}
!1 = !{i32 2, !"RtLibUseGOT", i32 1}
